; Function Attrs: nofree nounwind sspstrong uwtable
define dso_local i32 @main() local_unnamed_addr #0 {
  %1 = alloca [100 x [100 x i32]], align 16
  %2 = alloca i32, align 4
  %3 = alloca i32, align 4
  %4 = alloca i32, align 4
  %5 = bitcast [100 x [100 x i32]]* %1 to i8*
  call void @llvm.lifetime.start.p0i8(i64 40000, i8* nonnull %5) #5
  call void @llvm.memset.p0i8.i64(i8* noundef nonnull align 16 dereferenceable(40000) %5, i8 0, i64 40000, i1 false)
  %6 = bitcast i32* %2 to i8*
  call void @llvm.lifetime.start.p0i8(i64 4, i8* nonnull %6) #5
  %7 = bitcast i32* %3 to i8*
  call void @llvm.lifetime.start.p0i8(i64 4, i8* nonnull %7) #5
  %8 = bitcast i32* %4 to i8*
  call void @llvm.lifetime.start.p0i8(i64 4, i8* nonnull %8) #5
  %9 = call i32 (i8*, ...) @__isoc99_scanf(i8* getelementptr inbounds ([3 x i8], [3 x i8]* @.str, i64 0, i64 0), i32* nonnull %2)
  %10 = getelementptr inbounds [100 x [100 x i32]], [100 x [100 x i32]]* %1, i64 0, i64 0, i64 0
  %11 = load i32, i32* %2, align 4, !tbaa !5
  %12 = icmp sgt i32 %11, 0
  br i1 %12, label %13, label %271

13:                                               ; preds = %0, %267
  %14 = phi i32 [ %268, %267 ], [ 0, %0 ]
  %15 = call i32 (i8*, ...) @__isoc99_scanf(i8* getelementptr inbounds ([6 x i8], [6 x i8]* @.str.1, i64 0, i64 0), i32* nonnull %3, i32* nonnull %4)
  %16 = load i32, i32* %3, align 4, !tbaa !5
  %17 = icmp sgt i32 %16, 0
  %18 = load i32, i32* %4, align 4, !tbaa !5
  br i1 %17, label %19, label %26

19:                                               ; preds = %13
  %20 = icmp sgt i32 %18, 0
  br i1 %20, label %118, label %21

21:                                               ; preds = %19
  %22 = add nsw i32 %16, -1
  %23 = zext i32 %22 to i64
  %24 = add nsw i32 %18, -1
  %25 = sext i32 %24 to i64
  br label %144

26:                                               ; preds = %133, %13
  %27 = phi i32 [ %18, %13 ], [ %135, %133 ]
  %28 = phi i32 [ %16, %13 ], [ %134, %133 ]
  %29 = add nsw i32 %28, -1
  %30 = sext i32 %29 to i64
  %31 = icmp sgt i32 %27, 0
  br i1 %31, label %32, label %139

32:                                               ; preds = %26
  %33 = zext i32 %27 to i64
  %34 = icmp ult i32 %27, 8
  br i1 %34, label %115, label %35

35:                                               ; preds = %32
  %36 = and i64 %33, 4294967288
  %37 = add nsw i64 %36, -8
  %38 = lshr exact i64 %37, 3
  %39 = add nuw nsw i64 %38, 1
  %40 = and i64 %39, 1
  %41 = icmp eq i64 %37, 0
  br i1 %41, label %85, label %42

42:                                               ; preds = %35
  %43 = and i64 %39, 4611686018427387902
  br label %44

44:                                               ; preds = %44, %42
  %45 = phi i64 [ 0, %42 ], [ %82, %44 ]
  %46 = phi <4 x i32> [ zeroinitializer, %42 ], [ %80, %44 ]
  %47 = phi <4 x i32> [ zeroinitializer, %42 ], [ %81, %44 ]
  %48 = phi i64 [ %43, %42 ], [ %83, %44 ]
  %49 = getelementptr inbounds [100 x [100 x i32]], [100 x [100 x i32]]* %1, i64 0, i64 0, i64 %45
  %50 = bitcast i32* %49 to <4 x i32>*
  %51 = load <4 x i32>, <4 x i32>* %50, align 16, !tbaa !5
  %52 = getelementptr inbounds i32, i32* %49, i64 4
  %53 = bitcast i32* %52 to <4 x i32>*
  %54 = load <4 x i32>, <4 x i32>* %53, align 16, !tbaa !5
  %55 = add <4 x i32> %51, %46
  %56 = add <4 x i32> %54, %47
  %57 = getelementptr inbounds [100 x [100 x i32]], [100 x [100 x i32]]* %1, i64 0, i64 %30, i64 %45
  %58 = bitcast i32* %57 to <4 x i32>*
  %59 = load <4 x i32>, <4 x i32>* %58, align 16, !tbaa !5
  %60 = getelementptr inbounds i32, i32* %57, i64 4
  %61 = bitcast i32* %60 to <4 x i32>*
  %62 = load <4 x i32>, <4 x i32>* %61, align 16, !tbaa !5
  %63 = add <4 x i32> %55, %59
  %64 = add <4 x i32> %56, %62
  %65 = or i64 %45, 8
  %66 = getelementptr inbounds [100 x [100 x i32]], [100 x [100 x i32]]* %1, i64 0, i64 0, i64 %65
  %67 = bitcast i32* %66 to <4 x i32>*
  %68 = load <4 x i32>, <4 x i32>* %67, align 16, !tbaa !5
  %69 = getelementptr inbounds i32, i32* %66, i64 4
  %70 = bitcast i32* %69 to <4 x i32>*
  %71 = load <4 x i32>, <4 x i32>* %70, align 16, !tbaa !5
  %72 = add <4 x i32> %68, %63
  %73 = add <4 x i32> %71, %64
  %74 = getelementptr inbounds [100 x [100 x i32]], [100 x [100 x i32]]* %1, i64 0, i64 %30, i64 %65
  %75 = bitcast i32* %74 to <4 x i32>*
  %76 = load <4 x i32>, <4 x i32>* %75, align 16, !tbaa !5
  %77 = getelementptr inbounds i32, i32* %74, i64 4
  %78 = bitcast i32* %77 to <4 x i32>*
  %79 = load <4 x i32>, <4 x i32>* %78, align 16, !tbaa !5
  %80 = add <4 x i32> %72, %76
  %81 = add <4 x i32> %73, %79
  %82 = add nuw i64 %45, 16
  %83 = add i64 %48, -2
  %84 = icmp eq i64 %83, 0
  br i1 %84, label %85, label %44, !llvm.loop !9

85:                                               ; preds = %44, %35
  %86 = phi <4 x i32> [ undef, %35 ], [ %80, %44 ]
  %87 = phi <4 x i32> [ undef, %35 ], [ %81, %44 ]
  %88 = phi i64 [ 0, %35 ], [ %82, %44 ]
  %89 = phi <4 x i32> [ zeroinitializer, %35 ], [ %80, %44 ]
  %90 = phi <4 x i32> [ zeroinitializer, %35 ], [ %81, %44 ]
  %91 = icmp eq i64 %40, 0
  br i1 %91, label %109, label %92

92:                                               ; preds = %85
  %93 = getelementptr inbounds [100 x [100 x i32]], [100 x [100 x i32]]* %1, i64 0, i64 0, i64 %88
  %94 = getelementptr inbounds [100 x [100 x i32]], [100 x [100 x i32]]* %1, i64 0, i64 %30, i64 %88
  %95 = getelementptr inbounds i32, i32* %93, i64 4
  %96 = bitcast i32* %95 to <4 x i32>*
  %97 = load <4 x i32>, <4 x i32>* %96, align 16, !tbaa !5
  %98 = add <4 x i32> %97, %90
  %99 = getelementptr inbounds i32, i32* %94, i64 4
  %100 = bitcast i32* %99 to <4 x i32>*
  %101 = load <4 x i32>, <4 x i32>* %100, align 16, !tbaa !5
  %102 = add <4 x i32> %98, %101
  %103 = bitcast i32* %93 to <4 x i32>*
  %104 = load <4 x i32>, <4 x i32>* %103, align 16, !tbaa !5
  %105 = add <4 x i32> %104, %89
  %106 = bitcast i32* %94 to <4 x i32>*
  %107 = load <4 x i32>, <4 x i32>* %106, align 16, !tbaa !5
  %108 = add <4 x i32> %105, %107
  br label %109

109:                                              ; preds = %85, %92
  %110 = phi <4 x i32> [ %86, %85 ], [ %108, %92 ]
  %111 = phi <4 x i32> [ %87, %85 ], [ %102, %92 ]
  %112 = add <4 x i32> %111, %110
  %113 = call i32 @llvm.vector.reduce.add.v4i32(<4 x i32> %112)
  %114 = icmp eq i64 %36, %33
  br i1 %114, label %139, label %115

115:                                              ; preds = %32, %109
  %116 = phi i64 [ 0, %32 ], [ %36, %109 ]
  %117 = phi i32 [ 0, %32 ], [ %113, %109 ]
  br label %154

118:                                              ; preds = %19, %133
  %119 = phi i32 [ %134, %133 ], [ %16, %19 ]
  %120 = phi i32 [ %135, %133 ], [ %18, %19 ]
  %121 = phi i64 [ %136, %133 ], [ 0, %19 ]
  %122 = icmp sgt i32 %120, 0
  br i1 %122, label %123, label %133

123:                                              ; preds = %118, %123
  %124 = phi i64 [ %127, %123 ], [ 0, %118 ]
  %125 = getelementptr inbounds [100 x [100 x i32]], [100 x [100 x i32]]* %1, i64 0, i64 %121, i64 %124
  %126 = call i32 (i8*, ...) @__isoc99_scanf(i8* getelementptr inbounds ([3 x i8], [3 x i8]* @.str, i64 0, i64 0), i32* nonnull %125)
  %127 = add nuw nsw i64 %124, 1
  %128 = load i32, i32* %4, align 4, !tbaa !5
  %129 = sext i32 %128 to i64
  %130 = icmp slt i64 %127, %129
  br i1 %130, label %123, label %131, !llvm.loop !12

131:                                              ; preds = %123
  %132 = load i32, i32* %3, align 4, !tbaa !5
  br label %133

133:                                              ; preds = %131, %118
  %134 = phi i32 [ %132, %131 ], [ %119, %118 ]
  %135 = phi i32 [ %128, %131 ], [ %120, %118 ]
  %136 = add nuw nsw i64 %121, 1
  %137 = sext i32 %134 to i64
  %138 = icmp slt i64 %136, %137
  br i1 %138, label %118, label %26, !llvm.loop !13

139:                                              ; preds = %154, %109, %26
  %140 = phi i32 [ 0, %26 ], [ %113, %109 ], [ %162, %154 ]
  %141 = add nsw i32 %27, -1
  %142 = sext i32 %141 to i64
  %143 = icmp sgt i32 %28, 0
  br i1 %143, label %144, label %197

144:                                              ; preds = %21, %139
  %145 = phi i64 [ %25, %21 ], [ %142, %139 ]
  %146 = phi i32 [ 0, %21 ], [ %140, %139 ]
  %147 = phi i32 [ %16, %21 ], [ %28, %139 ]
  %148 = phi i64 [ %23, %21 ], [ %30, %139 ]
  %149 = zext i32 %147 to i64
  %150 = and i64 %149, 1
  %151 = icmp eq i32 %147, 1
  br i1 %151, label %185, label %152

152:                                              ; preds = %144
  %153 = and i64 %149, 4294967294
  br label %165

154:                                              ; preds = %115, %154
  %155 = phi i64 [ %163, %154 ], [ %116, %115 ]
  %156 = phi i32 [ %162, %154 ], [ %117, %115 ]
  %157 = getelementptr inbounds [100 x [100 x i32]], [100 x [100 x i32]]* %1, i64 0, i64 0, i64 %155
  %158 = load i32, i32* %157, align 4, !tbaa !5
  %159 = add nsw i32 %158, %156
  %160 = getelementptr inbounds [100 x [100 x i32]], [100 x [100 x i32]]* %1, i64 0, i64 %30, i64 %155
  %161 = load i32, i32* %160, align 4, !tbaa !5
  %162 = add nsw i32 %159, %161
  %163 = add nuw nsw i64 %155, 1
  %164 = icmp eq i64 %163, %33
  br i1 %164, label %139, label %154, !llvm.loop !15

165:                                              ; preds = %165, %152
  %166 = phi i64 [ 0, %152 ], [ %182, %165 ]
  %167 = phi i32 [ %146, %152 ], [ %181, %165 ]
  %168 = phi i64 [ %153, %152 ], [ %183, %165 ]
  %169 = getelementptr inbounds [100 x [100 x i32]], [100 x [100 x i32]]* %1, i64 0, i64 %166, i64 0
  %170 = load i32, i32* %169, align 16, !tbaa !5
  %171 = add nsw i32 %170, %167
  %172 = getelementptr inbounds [100 x [100 x i32]], [100 x [100 x i32]]* %1, i64 0, i64 %166, i64 %145
  %173 = load i32, i32* %172, align 4, !tbaa !5
  %174 = add nsw i32 %171, %173
  %175 = or i64 %166, 1
  %176 = getelementptr inbounds [100 x [100 x i32]], [100 x [100 x i32]]* %1, i64 0, i64 %175, i64 0
  %177 = load i32, i32* %176, align 16, !tbaa !5
  %178 = add nsw i32 %177, %174
  %179 = getelementptr inbounds [100 x [100 x i32]], [100 x [100 x i32]]* %1, i64 0, i64 %175, i64 %145
  %180 = load i32, i32* %179, align 4, !tbaa !5
  %181 = add nsw i32 %178, %180
  %182 = add nuw nsw i64 %166, 2
  %183 = add i64 %168, -2
  %184 = icmp eq i64 %183, 0
  br i1 %184, label %185, label %165, !llvm.loop !17

185:                                              ; preds = %165, %144
  %186 = phi i32 [ undef, %144 ], [ %181, %165 ]
  %187 = phi i64 [ 0, %144 ], [ %182, %165 ]
  %188 = phi i32 [ %146, %144 ], [ %181, %165 ]
  %189 = icmp eq i64 %150, 0
  br i1 %189, label %197, label %190

190:                                              ; preds = %185
  %191 = getelementptr inbounds [100 x [100 x i32]], [100 x [100 x i32]]* %1, i64 0, i64 %187, i64 0
  %192 = load i32, i32* %191, align 16, !tbaa !5
  %193 = add nsw i32 %192, %188
  %194 = getelementptr inbounds [100 x [100 x i32]], [100 x [100 x i32]]* %1, i64 0, i64 %187, i64 %145
  %195 = load i32, i32* %194, align 4, !tbaa !5
  %196 = add nsw i32 %193, %195
  br label %197

197:                                              ; preds = %190, %185, %139
  %198 = phi i64 [ %142, %139 ], [ %145, %185 ], [ %145, %190 ]
  %199 = phi i64 [ %30, %139 ], [ %148, %185 ], [ %148, %190 ]
  %200 = phi i32 [ %140, %139 ], [ %186, %185 ], [ %196, %190 ]
  %201 = getelementptr inbounds [100 x [100 x i32]], [100 x [100 x i32]]* %1, i64 0, i64 0, i64 %198
  %202 = load i32, i32* %201, align 4, !tbaa !5
  %203 = getelementptr inbounds [100 x [100 x i32]], [100 x [100 x i32]]* %1, i64 0, i64 %199, i64 0
  %204 = load i32, i32* %203, align 16, !tbaa !5
  %205 = getelementptr inbounds [100 x [100 x i32]], [100 x [100 x i32]]* %1, i64 0, i64 %199, i64 %198
  %206 = load i32, i32* %205, align 4, !tbaa !5
  %207 = load i32, i32* %10, align 16, !tbaa !5
  %208 = add i32 %202, %204
  %209 = add i32 %208, %206
  %210 = add i32 %209, %207
  %211 = sub i32 %200, %210
  %212 = call i32 (i8*, ...) @printf(i8* nonnull dereferenceable(1) getelementptr inbounds ([4 x i8], [4 x i8]* @.str.2, i64 0, i64 0), i32 %211)
  %213 = load i32, i32* %3, align 4, !tbaa !5
  %214 = load i32, i32* %4, align 4
  %215 = icmp sgt i32 %213, 0
  %216 = icmp sgt i32 %214, 0
  %217 = select i1 %215, i1 %216, i1 false
  br i1 %217, label %218, label %267

218:                                              ; preds = %197
  %219 = zext i32 %214 to i64
  %220 = shl nuw nsw i64 %219, 2
  %221 = zext i32 %213 to i64
  %222 = add nsw i64 %221, -1
  %223 = and i64 %221, 7
  %224 = icmp ult i64 %222, 7
  br i1 %224, label %256, label %225

225:                                              ; preds = %218
  %226 = and i64 %221, 4294967288
  br label %227

227:                                              ; preds = %227, %225
  %228 = phi i64 [ 0, %225 ], [ %253, %227 ]
  %229 = phi i64 [ %226, %225 ], [ %254, %227 ]
  %230 = getelementptr [100 x [100 x i32]], [100 x [100 x i32]]* %1, i64 0, i64 %228, i64 0
  %231 = bitcast i32* %230 to i8*
  call void @llvm.memset.p0i8.i64(i8* align 16 %231, i8 0, i64 %220, i1 false)
  %232 = or i64 %228, 1
  %233 = getelementptr [100 x [100 x i32]], [100 x [100 x i32]]* %1, i64 0, i64 %232, i64 0
  %234 = bitcast i32* %233 to i8*
  call void @llvm.memset.p0i8.i64(i8* align 16 %234, i8 0, i64 %220, i1 false)
  %235 = or i64 %228, 2
  %236 = getelementptr [100 x [100 x i32]], [100 x [100 x i32]]* %1, i64 0, i64 %235, i64 0
  %237 = bitcast i32* %236 to i8*
  call void @llvm.memset.p0i8.i64(i8* align 16 %237, i8 0, i64 %220, i1 false)
  %238 = or i64 %228, 3
  %239 = getelementptr [100 x [100 x i32]], [100 x [100 x i32]]* %1, i64 0, i64 %238, i64 0
  %240 = bitcast i32* %239 to i8*
  call void @llvm.memset.p0i8.i64(i8* align 16 %240, i8 0, i64 %220, i1 false)
  %241 = or i64 %228, 4
  %242 = getelementptr [100 x [100 x i32]], [100 x [100 x i32]]* %1, i64 0, i64 %241, i64 0
  %243 = bitcast i32* %242 to i8*
  call void @llvm.memset.p0i8.i64(i8* align 16 %243, i8 0, i64 %220, i1 false)
  %244 = or i64 %228, 5
  %245 = getelementptr [100 x [100 x i32]], [100 x [100 x i32]]* %1, i64 0, i64 %244, i64 0
  %246 = bitcast i32* %245 to i8*
  call void @llvm.memset.p0i8.i64(i8* align 16 %246, i8 0, i64 %220, i1 false)
  %247 = or i64 %228, 6
  %248 = getelementptr [100 x [100 x i32]], [100 x [100 x i32]]* %1, i64 0, i64 %247, i64 0
  %249 = bitcast i32* %248 to i8*
  call void @llvm.memset.p0i8.i64(i8* align 16 %249, i8 0, i64 %220, i1 false)
  %250 = or i64 %228, 7
  %251 = getelementptr [100 x [100 x i32]], [100 x [100 x i32]]* %1, i64 0, i64 %250, i64 0
  %252 = bitcast i32* %251 to i8*
  call void @llvm.memset.p0i8.i64(i8* align 16 %252, i8 0, i64 %220, i1 false)
  %253 = add nuw nsw i64 %228, 8
  %254 = add i64 %229, -8
  %255 = icmp eq i64 %254, 0
  br i1 %255, label %256, label %227, !llvm.loop !18

256:                                              ; preds = %227, %218
  %257 = phi i64 [ 0, %218 ], [ %253, %227 ]
  %258 = icmp eq i64 %223, 0
  br i1 %258, label %267, label %259

259:                                              ; preds = %256, %259
  %260 = phi i64 [ %264, %259 ], [ %257, %256 ]
  %261 = phi i64 [ %265, %259 ], [ %223, %256 ]
  %262 = getelementptr [100 x [100 x i32]], [100 x [100 x i32]]* %1, i64 0, i64 %260, i64 0
  %263 = bitcast i32* %262 to i8*
  call void @llvm.memset.p0i8.i64(i8* align 16 %263, i8 0, i64 %220, i1 false)
  %264 = add nuw nsw i64 %260, 1
  %265 = add i64 %261, -1
  %266 = icmp eq i64 %265, 0
  br i1 %266, label %267, label %259, !llvm.loop !19

267:                                              ; preds = %256, %259, %197
  %268 = add nuw nsw i32 %14, 1
  %269 = load i32, i32* %2, align 4, !tbaa !5
  %270 = icmp slt i32 %268, %269
  br i1 %270, label %13, label %271, !llvm.loop !21

271:                                              ; preds = %267, %0
  call void @llvm.lifetime.end.p0i8(i64 4, i8* nonnull %8) #5
  call void @llvm.lifetime.end.p0i8(i64 4, i8* nonnull %7) #5
  call void @llvm.lifetime.end.p0i8(i64 4, i8* nonnull %6) #5
  call void @llvm.lifetime.end.p0i8(i64 40000, i8* nonnull %5) #5
  ret i32 0
}